target datalayout = "e-m:e-p270:32:32-p271:32:32-p272:64:64-i64:64-i128:128-f80:128-n8:16:32:64-S128"
target triple = "x86_64-pc-linux-gnu"

%struct.stbtt__buf = type { ptr, i32, i32 }

; Function Attrs: nounwind uwtable
define void @stbtt__buf_seek(ptr noundef %0, i32 noundef %1) #0 {
  %3 = alloca ptr, align 8
  %4 = alloca i32, align 4
  store ptr %0, ptr %3, align 8, !tbaa !3
  store i32 %1, ptr %4, align 4, !tbaa !14
  %5 = load i32, ptr %4, align 4, !tbaa !14
  %6 = load ptr, ptr %3, align 8, !tbaa !3
  %7 = getelementptr inbounds nuw %struct.stbtt__buf, ptr %6, i32 0, i32 2
  %8 = load i32, ptr %7, align 4, !tbaa !11
  %9 = icmp sgt i32 %5, %8
  br i1 %9, label %13, label %10

10:                                               ; preds = %2
  %11 = load i32, ptr %4, align 4, !tbaa !14
  %12 = icmp slt i32 %11, 0
  br i1 %12, label %13, label %17

13:                                               ; preds = %10, %2
  %14 = load ptr, ptr %3, align 8, !tbaa !3
  %15 = getelementptr inbounds nuw %struct.stbtt__buf, ptr %14, i32 0, i32 2
  %16 = load i32, ptr %15, align 4, !tbaa !11
  br label %19

17:                                               ; preds = %10
  %18 = load i32, ptr %4, align 4, !tbaa !14
  br label %19

19:                                               ; preds = %17, %13
  %20 = phi i32 [ %16, %13 ], [ %18, %17 ]
  %21 = load ptr, ptr %3, align 8, !tbaa !3
  %22 = getelementptr inbounds nuw %struct.stbtt__buf, ptr %21, i32 0, i32 1
  store i32 %20, ptr %22, align 8, !tbaa !7
  ret void
}