; Function Attrs: mustprogress nofree norecurse nosync nounwind willreturn memory(argmem: readwrite) uwtable
define void @stbtt__buf_seek(ptr noundef captures(none) initializes((8, 12)) %0, i32 noundef %1) local_unnamed_addr #2 {
  %3 = getelementptr inbounds nuw i8, ptr %0, i64 12
  %4 = load i32, ptr %3, align 4, !tbaa !10
  %5 = icmp slt i32 %1, 0
  %6 = tail call i32 @llvm.smin.i32(i32 %1, i32 %4)
  %. = select i1 %5, i32 %4, i32 %6
  %7 = getelementptr inbounds nuw i8, ptr %0, i64 8
  store i32 %., ptr %7, align 8, !tbaa !3
  ret void
}